Certificate:
    Data:
        Version: 3 (0x2)
        Serial Number: 1 (0x1)
        Signature Algorithm: sha1WithRSAEncryption
        Issuer: C=BA, ST=RS, L=Banja Luka, O=Elektrotehnicki fakultet, OU=CA_Mario Perac, CN=Mario Perac/emailAddress=mario.perac@student.etf.unibl.org
        Validity
            Not Before: Aug 16 10:16:45 2023 GMT
            Not After : Aug 15 10:16:45 2024 GMT
        Subject: C=BA, ST=RS, O=Elektrotehnicki fakultet, OU=CA_Mario Perac, CN=Korisnik Pravi/emailAddress=kor@mail.com
        Subject Public Key Info:
            Public Key Algorithm: rsaEncryption
                Public-Key: (2048 bit)
                Modulus:
                    00:bb:93:f8:26:d8:bd:59:97:cb:39:16:f3:90:69:
                    19:09:9f:de:38:d5:d8:0b:21:42:86:2d:3b:34:0c:
                    6b:9f:a7:2b:ae:f5:3e:36:54:d7:90:a4:76:a8:1d:
                    c7:47:05:d0:66:01:ac:6e:bc:45:1b:66:ee:5a:9a:
                    ee:ac:dd:ac:39:3d:f4:eb:af:f4:b2:06:61:e0:83:
                    3d:4d:f9:e5:d5:d7:76:06:49:52:a5:7f:dd:50:34:
                    cd:3e:a5:cf:87:94:c8:7e:b5:88:bf:52:8c:bb:41:
                    4f:3b:6c:d8:cc:1c:a1:40:06:26:3f:64:eb:8a:f0:
                    2a:d1:59:91:75:c3:1f:1c:e2:b5:79:d9:7f:23:86:
                    74:3d:3a:78:40:3b:37:b5:a1:f9:6c:78:6d:cb:1a:
                    01:2b:c6:f7:c5:f6:14:f8:7a:cd:4d:27:a3:a3:18:
                    ca:d8:0a:d9:63:9f:4b:06:97:01:15:63:f8:01:af:
                    c8:11:9a:55:b9:87:92:4d:12:52:84:62:58:32:82:
                    f8:44:db:9f:b3:89:e7:12:44:c1:4d:e6:b4:78:6b:
                    02:08:72:0f:29:3b:e5:c2:cb:29:0d:4b:4c:39:1b:
                    54:1c:e2:b0:de:2d:20:d0:5d:1b:ff:a5:42:88:64:
                    40:a0:d5:c9:01:1e:81:eb:75:58:43:e2:2c:48:06:
                    56:99
                Exponent: 65537 (0x10001)
        X509v3 extensions:
            X509v3 Basic Constraints: 
                CA:FALSE
            X509v3 Key Usage: 
                Digital Signature, Non Repudiation, Key Encipherment, Data Encipherment
            Netscape Comment: 
                OpenSSL Generated Certificate
            X509v3 Subject Key Identifier: 
                38:D8:A2:52:4D:BD:BE:12:EA:0E:57:30:4A:7D:13:EA:7A:E4:F5:68
            X509v3 Authority Key Identifier: 
                FA:0C:18:B2:0D:DA:49:38:F0:2A:E1:EB:61:0E:59:47:FC:A3:B2:9C
            X509v3 CRL Distribution Points: 
                Full Name:
                  URI:http://192.168.21.89/rootcrl.pem
    Signature Algorithm: sha1WithRSAEncryption
    Signature Value:
        9d:c3:48:ff:0c:b6:12:90:ad:47:db:2b:a8:56:0d:c5:47:03:
        a4:04:af:57:8e:e1:61:7e:ec:cc:2b:a3:ec:67:31:03:99:c6:
        bf:0f:ce:32:d9:13:4c:2b:8f:2c:d5:d6:40:8b:35:01:1f:1e:
        22:36:3c:01:b4:60:da:c5:01:88:ea:a8:c7:20:ab:f6:83:69:
        d8:5d:e3:50:37:ab:da:52:30:7f:15:25:06:8b:55:e5:fe:f1:
        18:c2:4e:39:dd:8a:42:d4:1e:e5:32:b4:dc:16:80:70:a5:17:
        b9:10:64:50:ad:93:40:c1:27:23:d3:af:55:ae:28:df:95:ec:
        96:62:38:67:62:13:b7:40:0b:fb:fd:f4:72:a2:07:af:77:0b:
        c9:03:e8:d0:18:cc:64:f5:ef:e7:51:e0:c2:d4:31:85:d5:51:
        d0:dc:58:6a:33:1d:a9:46:30:bc:84:a3:07:d7:60:90:fc:23:
        01:57:2d:20:4a:10:75:5a:fb:ac:aa:92:e6:23:be:98:5d:24:
        4f:d4:53:47:29:fc:c5:a0:6b:65:b2:5d:2c:d1:54:94:a8:83:
        5a:4e:c0:e2:ae:ef:c6:57:94:d2:9d:ab:5a:19:83:1a:41:e7:
        03:81:84:c0:14:a5:44:7a:b0:ac:5b:85:f8:d2:ab:67:58:58:
        d0:1b:11:2f:be:d4:6b:5c:46:01:cf:2d:11:73:84:bc:78:08:
        a0:e8:cf:dd:12:98:54:28:83:54:7f:b2:3d:d6:2f:29:3d:ea:
        51:1e:41:cc:95:80:23:c5:3e:1e:bc:c0:cb:e1:cc:61:26:14:
        78:46:51:f9:45:70:ba:ac:7b:8a:9b:5e:88:44:d0:ff:eb:6a:
        d5:f9:c2:d7:49:fd:45:96:a1:a6:75:43:a6:26:c4:82:04:dc:
        8a:91:10:43:4f:7c:93:75:85:64:e9:1d:04:66:a7:50:8a:1b:
        be:2a:5c:da:b8:cb:29:c3:1c:e2:24:4b:42:47:04:66:37:63:
        73:c0:90:a0:62:16:a2:b8:4a:a3:88:7c:7a:9c:37:98:64:ae:
        e4:ad:e7:e5:9d:c7:5a:28:24:87:2e:82:af:55:23:e4:7f:6a:
        93:e6:d0:d6:e4:ea:b1:f7:fc:8c:d6:28:f4:34:4e:47:d7:8a:
        20:9f:8e:1a:ce:67:4b:5a:82:32:76:6f:93:87:05:91:e9:39:
        07:1b:99:c3:af:c1:75:95:80:5c:c2:cf:7d:5c:21:2b:84:6f:
        d2:67:fa:d2:df:cd:1a:34:db:be:6c:fc:67:20:2b:a2:77:cb:
        60:04:fd:47:a1:84:46:ae:f3:c4:ab:b6:bf:43:e3:6c:fd:a4:
        bd:bd:02:7a:f1:a1:b8:23
-----BEGIN CERTIFICATE-----
MIIFeTCCA2GgAwIBAgIBATANBgkqhkiG9w0BAQUFADCBszELMAkGA1UEBhMCQkEx
CzAJBgNVBAgTAlJTMRMwEQYDVQQHEwpCYW5qYSBMdWthMSEwHwYDVQQKExhFbGVr
dHJvdGVobmlja2kgZmFrdWx0ZXQxFzAVBgNVBAsUDkNBX01hcmlvIFBlcmFjMRQw
EgYDVQQDEwtNYXJpbyBQZXJhYzEwMC4GCSqGSIb3DQEJARYhbWFyaW8ucGVyYWNA
c3R1ZGVudC5ldGYudW5pYmwub3JnMB4XDTIzMDgxNjEwMTY0NVoXDTI0MDgxNTEw
MTY0NVowgYwxCzAJBgNVBAYTAkJBMQswCQYDVQQIEwJSUzEhMB8GA1UEChMYRWxl
a3Ryb3RlaG5pY2tpIGZha3VsdGV0MRcwFQYDVQQLFA5DQV9NYXJpbyBQZXJhYzEX
MBUGA1UEAxMOS29yaXNuaWsgUHJhdmkxGzAZBgkqhkiG9w0BCQEWDGtvckBtYWls
LmNvbTCCASIwDQYJKoZIhvcNAQEBBQADggEPADCCAQoCggEBALuT+CbYvVmXyzkW
85BpGQmf3jjV2AshQoYtOzQMa5+nK671PjZU15Ckdqgdx0cF0GYBrG68RRtm7lqa
7qzdrDk99Ouv9LIGYeCDPU355dXXdgZJUqV/3VA0zT6lz4eUyH61iL9SjLtBTzts
2MwcoUAGJj9k64rwKtFZkXXDHxzitXnZfyOGdD06eEA7N7Wh+Wx4bcsaASvG98X2
FPh6zU0no6MYytgK2WOfSwaXARVj+AGvyBGaVbmHkk0SUoRiWDKC+ETbn7OJ5xJE
wU3mtHhrAghyDyk75cLLKQ1LTDkbVBzisN4tINBdG/+lQohkQKDVyQEeget1WEPi
LEgGVpkCAwEAAaOBvDCBuTAJBgNVHRMEAjAAMAsGA1UdDwQEAwIE8DAsBglghkgB
hvhCAQ0EHxYdT3BlblNTTCBHZW5lcmF0ZWQgQ2VydGlmaWNhdGUwHQYDVR0OBBYE
FDjYolJNvb4S6g5XMEp9E+p65PVoMB8GA1UdIwQYMBaAFPoMGLIN2kk48Crh62EO
WUf8o7KcMDEGA1UdHwQqMCgwJqAkoCKGIGh0dHA6Ly8xOTIuMTY4LjIxLjg5L3Jv
b3RjcmwucGVtMA0GCSqGSIb3DQEBBQUAA4ICAQCdw0j/DLYSkK1H2yuoVg3FRwOk
BK9XjuFhfuzMK6PsZzEDmca/D84y2RNMK48s1dZAizUBHx4iNjwBtGDaxQGI6qjH
IKv2g2nYXeNQN6vaUjB/FSUGi1Xl/vEYwk453YpC1B7lMrTcFoBwpRe5EGRQrZNA
wScj069VrijfleyWYjhnYhO3QAv7/fRyogevdwvJA+jQGMxk9e/nUeDC1DGF1VHQ
3FhqMx2pRjC8hKMH12CQ/CMBVy0gShB1WvusqpLmI76YXSRP1FNHKfzFoGtlsl0s
0VSUqINaTsDiru/GV5TSnataGYMaQecDgYTAFKVEerCsW4X40qtnWFjQGxEvvtRr
XEYBzy0Rc4S8eAig6M/dEphUKINUf7I91i8pPepRHkHMlYAjxT4evMDL4cxhJhR4
RlH5RXC6rHuKm16IRND/62rV+cLXSf1FlqGmdUOmJsSCBNyKkRBDT3yTdYVk6R0E
ZqdQihu+KlzauMspwxziJEtCRwRmN2NzwJCgYhaiuEqjiHx6nDeYZK7kreflncda
KCSHLoKvVSPkf2qT5tDW5Oqx9/yM1ij0NE5H14ogn44azmdLWoIydm+ThwWR6TkH
G5nDr8F1lYBcws99XCErhG/SZ/rS380aNNu+bPxnICuid8tgBP1HoYRGrvPEq7a/
Q+Ns/aS9vQJ68aG4Iw==
-----END CERTIFICATE-----
