Certificate:
    Data:
        Version: 3 (0x2)
        Serial Number: 1 (0x1)
        Signature Algorithm: sha1WithRSAEncryption
        Issuer: C=BA, ST=RS, L=Banja Luka, O=Elektrotehnicki fakultet, OU=CA_Mario Perac, CN=Mario Perac/emailAddress=mario.perac@student.etf.unibl.org
        Validity
            Not Before: Aug 18 09:29:28 2023 GMT
            Not After : Aug 17 09:29:28 2024 GMT
        Subject: C=BA, ST=RS, O=Elektrotehnicki fakultet, OU=CA_Mario Perac, CN=User One/emailAddress=user1@mail.com
        Subject Public Key Info:
            Public Key Algorithm: rsaEncryption
                Public-Key: (2048 bit)
                Modulus:
                    00:d4:00:12:f4:03:22:a8:7a:65:29:4e:f2:ac:7e:
                    1f:8a:a4:eb:ef:9f:44:23:68:6c:f1:85:85:07:4d:
                    6e:01:e9:67:96:63:31:31:86:8f:88:4c:13:52:77:
                    2b:c7:2a:a1:cd:f3:dd:9a:a5:08:ff:c6:23:01:dc:
                    d1:e9:0f:55:d7:c5:ba:2c:5e:6d:c6:39:8d:de:63:
                    5a:59:29:95:8c:39:3e:69:ac:4e:e8:52:fb:23:2c:
                    b5:b9:2a:4c:d5:3b:10:17:e3:ec:fd:4d:de:0e:42:
                    07:8b:53:cc:dc:e5:a4:96:60:be:f4:6c:93:a7:1a:
                    17:40:c3:51:5f:ab:98:1f:32:4d:25:2d:d9:af:fe:
                    fe:2a:a4:cb:5a:7a:7c:3e:c9:00:e7:a9:b3:87:b6:
                    6d:f1:2e:79:cb:96:b0:af:e1:2c:c2:03:56:ab:17:
                    bc:c7:0b:9e:18:4e:91:a8:3c:7b:2c:9b:1c:10:d8:
                    28:ec:78:25:32:24:32:e2:7a:c1:fd:ab:15:5d:86:
                    f4:8d:11:8c:2b:d3:56:74:da:86:e5:8e:4b:d8:10:
                    43:48:d0:56:3d:e7:a2:33:bf:3c:ed:76:35:2f:95:
                    e4:a1:85:6e:f1:04:83:aa:ff:0f:57:53:2e:46:53:
                    e9:d1:39:e3:2c:cd:c6:32:96:a8:94:b5:28:5a:08:
                    fe:5b
                Exponent: 65537 (0x10001)
        X509v3 extensions:
            X509v3 Basic Constraints: 
                CA:FALSE
            X509v3 Key Usage: 
                Digital Signature, Non Repudiation, Key Encipherment, Data Encipherment
            Netscape Comment: 
                OpenSSL Generated Certificate
            X509v3 Subject Key Identifier: 
                A6:90:97:D0:3D:1F:1D:7D:97:0F:C1:C4:E0:E0:0A:3F:BE:D9:5F:A7
            X509v3 Authority Key Identifier: 
                FA:0C:18:B2:0D:DA:49:38:F0:2A:E1:EB:61:0E:59:47:FC:A3:B2:9C
            X509v3 CRL Distribution Points: 
                Full Name:
                  URI:http://192.168.21.89/rootcrl.pem
    Signature Algorithm: sha1WithRSAEncryption
    Signature Value:
        ae:3e:2d:6a:15:20:5e:02:eb:2c:85:89:45:58:fe:30:13:0e:
        10:43:2d:5d:f4:81:b9:e8:c8:47:7d:42:26:8b:f8:3c:ed:ef:
        7d:93:67:87:a5:50:d5:f6:87:0c:4e:98:bb:26:dd:ff:e8:dd:
        0d:2e:da:a8:e4:47:64:f5:7c:9c:85:2b:d6:aa:96:73:e3:8b:
        f7:30:49:44:ca:8e:cd:f7:15:2a:6d:af:96:eb:44:fc:2a:1e:
        95:21:20:11:f1:46:65:39:63:17:fd:ba:df:c4:eb:bb:38:a0:
        2f:35:6c:82:c0:12:c2:42:53:99:55:a2:b2:19:cb:8d:a7:2b:
        72:76:45:48:e6:ba:65:91:a7:01:5b:c2:44:5f:80:54:8a:41:
        af:63:a1:5a:83:ac:50:c6:53:ec:1e:9a:4b:66:0b:72:7b:11:
        ec:14:82:ea:c4:9a:ba:1c:c3:57:78:27:7a:20:46:e9:76:43:
        3e:c8:50:d4:91:03:1a:de:20:ed:44:e3:8f:6a:13:27:41:b5:
        ae:a7:6d:0b:63:42:a2:18:f6:6c:7f:1f:93:1e:44:3b:85:67:
        10:58:f3:f0:c9:df:b7:2a:bb:25:d4:b5:5a:0b:ae:37:99:97:
        da:f0:fd:98:b0:b6:5a:cc:b7:d0:4c:a3:cd:6d:eb:8e:dd:d0:
        10:de:9c:2a:d2:72:b9:6e:1c:25:c1:90:20:68:52:5d:6d:b4:
        83:48:3d:8c:71:f8:54:34:89:5e:c4:bc:46:50:0d:35:d9:61:
        33:e1:f0:bd:4b:cc:c4:51:04:13:05:c6:ad:11:00:cd:49:fd:
        09:35:26:26:e2:a1:89:d1:6c:93:43:f3:74:8d:be:8a:2b:d9:
        a4:d3:d5:77:89:2a:c4:94:87:51:3d:e6:04:25:17:b7:f9:12:
        d9:ed:e8:3c:2c:c5:d1:c3:72:2e:92:f8:73:6d:de:cf:a8:46:
        d2:6d:0e:20:7f:63:f8:dd:51:06:38:d5:61:2f:87:fe:8a:02:
        24:fb:27:5d:30:87:3d:59:9c:8e:a6:bc:68:ce:38:8d:0b:45:
        b2:a4:dc:b3:d9:dc:c6:da:96:e5:f7:93:6e:99:ca:0c:60:58:
        9c:9e:fa:96:45:af:1a:1a:26:07:1d:ce:73:a3:02:34:07:66:
        0c:5c:16:09:4e:c6:a0:20:33:d1:63:46:0e:68:42:67:fc:33:
        7f:0e:d0:35:68:7d:a9:ba:f5:54:2e:a1:25:8e:c9:c4:39:91:
        de:d3:4e:f2:86:6d:52:35:4b:a7:b4:d5:ee:bd:5c:98:22:ec:
        ee:74:e0:99:1b:c7:b2:ea:9f:69:09:12:01:86:5c:7a:80:4e:
        4d:d0:41:b3:09:eb:81:5e
-----BEGIN CERTIFICATE-----
MIIFdTCCA12gAwIBAgIBATANBgkqhkiG9w0BAQUFADCBszELMAkGA1UEBhMCQkEx
CzAJBgNVBAgTAlJTMRMwEQYDVQQHEwpCYW5qYSBMdWthMSEwHwYDVQQKExhFbGVr
dHJvdGVobmlja2kgZmFrdWx0ZXQxFzAVBgNVBAsUDkNBX01hcmlvIFBlcmFjMRQw
EgYDVQQDEwtNYXJpbyBQZXJhYzEwMC4GCSqGSIb3DQEJARYhbWFyaW8ucGVyYWNA
c3R1ZGVudC5ldGYudW5pYmwub3JnMB4XDTIzMDgxODA5MjkyOFoXDTI0MDgxNzA5
MjkyOFowgYgxCzAJBgNVBAYTAkJBMQswCQYDVQQIEwJSUzEhMB8GA1UEChMYRWxl
a3Ryb3RlaG5pY2tpIGZha3VsdGV0MRcwFQYDVQQLFA5DQV9NYXJpbyBQZXJhYzER
MA8GA1UEAxMIVXNlciBPbmUxHTAbBgkqhkiG9w0BCQEWDnVzZXIxQG1haWwuY29t
MIIBIjANBgkqhkiG9w0BAQEFAAOCAQ8AMIIBCgKCAQEA1AAS9AMiqHplKU7yrH4f
iqTr759EI2hs8YWFB01uAelnlmMxMYaPiEwTUncrxyqhzfPdmqUI/8YjAdzR6Q9V
18W6LF5txjmN3mNaWSmVjDk+aaxO6FL7Iyy1uSpM1TsQF+Ps/U3eDkIHi1PM3OWk
lmC+9GyTpxoXQMNRX6uYHzJNJS3Zr/7+KqTLWnp8PskA56mzh7Zt8S55y5awr+Es
wgNWqxe8xwueGE6RqDx7LJscENgo7HglMiQy4nrB/asVXYb0jRGMK9NWdNqG5Y5L
2BBDSNBWPeeiM7887XY1L5XkoYVu8QSDqv8PV1MuRlPp0TnjLM3GMpaolLUoWgj+
WwIDAQABo4G8MIG5MAkGA1UdEwQCMAAwCwYDVR0PBAQDAgTwMCwGCWCGSAGG+EIB
DQQfFh1PcGVuU1NMIEdlbmVyYXRlZCBDZXJ0aWZpY2F0ZTAdBgNVHQ4EFgQUppCX
0D0fHX2XD8HE4OAKP77ZX6cwHwYDVR0jBBgwFoAU+gwYsg3aSTjwKuHrYQ5ZR/yj
spwwMQYDVR0fBCowKDAmoCSgIoYgaHR0cDovLzE5Mi4xNjguMjEuODkvcm9vdGNy
bC5wZW0wDQYJKoZIhvcNAQEFBQADggIBAK4+LWoVIF4C6yyFiUVY/jATDhBDLV30
gbnoyEd9QiaL+Dzt732TZ4elUNX2hwxOmLsm3f/o3Q0u2qjkR2T1fJyFK9aqlnPj
i/cwSUTKjs33FSptr5brRPwqHpUhIBHxRmU5Yxf9ut/E67s4oC81bILAEsJCU5lV
orIZy42nK3J2RUjmumWRpwFbwkRfgFSKQa9joVqDrFDGU+wemktmC3J7EewUgurE
mrocw1d4J3ogRul2Qz7IUNSRAxreIO1E449qEydBta6nbQtjQqIY9mx/H5MeRDuF
ZxBY8/DJ37cquyXUtVoLrjeZl9rw/ZiwtlrMt9BMo81t647d0BDenCrScrluHCXB
kCBoUl1ttINIPYxx+FQ0iV7EvEZQDTXZYTPh8L1LzMRRBBMFxq0RAM1J/Qk1Jibi
oYnRbJND83SNvoor2aTT1XeJKsSUh1E95gQlF7f5Etnt6DwsxdHDci6S+HNt3s+o
RtJtDiB/Y/jdUQY41WEvh/6KAiT7J10whz1ZnI6mvGjOOI0LRbKk3LPZ3MbaluX3
k26ZygxgWJye+pZFrxoaJgcdznOjAjQHZgxcFglOxqAgM9FjRg5oQmf8M38O0DVo
fam69VQuoSWOycQ5kd7TTvKGbVI1S6e01e69XJgi7O504Jkbx7Lqn2kJEgGGXHqA
Tk3QQbMJ64Fe
-----END CERTIFICATE-----
